target datalayout = "e-m:e-p270:32:32-p271:32:32-p272:64:64-i64:64-i128:128-f80:128-n8:16:32:64-S128"
target triple = "x86_64-pc-linux-gnu"

%class.Sample = type { ptr, ptr, ptr, ptr, ptr, i8, float, float, float, float, float, float, float, float, float, float, float, float, float, i32, i8, i8, i8, ptr, [9 x ptr], ptr, %class.SampleDebugDraw }
%class.SampleDebugDraw = type { %class.DebugDrawGL }
%class.DebugDrawGL = type { %struct.duDebugDraw }
%struct.duDebugDraw = type { ptr }
%class.TempObstacleCreateTool = type { %struct.SampleTool, ptr }
%struct.SampleTool = type { ptr }
%class.TempObstacleHilightTool = type <{ %struct.SampleTool, ptr, [3 x float], i8, [3 x i8], i32, [4 x i8] }>

@.str.27 = private unnamed_addr constant [13 x i8] c"Test Navmesh\00", align 1
@.str.28 = private unnamed_addr constant [21 x i8] c"Highlight Tile Cache\00", align 1
@.str.29 = private unnamed_addr constant [22 x i8] c"Create Temp Obstacles\00", align 1
@.str.30 = private unnamed_addr constant [22 x i8] c"Create Off-Mesh Links\00", align 1
@.str.31 = private unnamed_addr constant [22 x i8] c"Create Convex Volumes\00", align 1
@.str.32 = private unnamed_addr constant [14 x i8] c"Create Crowds\00", align 1
@_ZTV10SampleTool = external unnamed_addr constant { [14 x ptr] }, align 8

; Function Attrs: mustprogress nounwind uwtable
define linkonce_odr dso_local void @_ZN10SampleToolC2Ev(ptr noundef nonnull align 8 dereferenceable(8) %0) unnamed_addr #0 comdat align 2 {
  %2 = alloca ptr, align 8
  store ptr %0, ptr %2, align 8
  %3 = load ptr, ptr %2, align 8
  store ptr getelementptr inbounds ({ [14 x ptr] }, ptr @_ZTV10SampleTool, i32 0, i32 0, i32 2), ptr %3, align 8
  ret void
}

; Function Attrs: mustprogress nounwind uwtable
define linkonce_odr dso_local void @_ZN22TempObstacleCreateToolC2Ev(ptr noundef nonnull align 8 dereferenceable(16) %0) unnamed_addr #0 comdat align 2 {
  %2 = alloca ptr, align 8
  store ptr %0, ptr %2, align 8
  %3 = load ptr, ptr %2, align 8
  call void @_ZN10SampleToolC2Ev(ptr noundef nonnull align 8 dereferenceable(8) %3) #10
  store ptr getelementptr inbounds ({ [14 x ptr] }, ptr @_ZTV22TempObstacleCreateTool, i32 0, i32 0, i32 2), ptr %3, align 8
  %4 = getelementptr inbounds %class.TempObstacleCreateTool, ptr %3, i32 0, i32 1
  store ptr null, ptr %4, align 8
  ret void
}

; Function Attrs: mustprogress nounwind uwtable
define linkonce_odr dso_local void @_ZN23TempObstacleHilightToolC2Ev(ptr noundef nonnull align 8 dereferenceable(36) %0) unnamed_addr #0 comdat align 2 {
  %2 = alloca ptr, align 8
  store ptr %0, ptr %2, align 8
  %3 = load ptr, ptr %2, align 8
  call void @_ZN10SampleToolC2Ev(ptr noundef nonnull align 8 dereferenceable(8) %3) #10
  store ptr getelementptr inbounds ({ [14 x ptr] }, ptr @_ZTV23TempObstacleHilightTool, i32 0, i32 0, i32 2), ptr %3, align 8
  %4 = getelementptr inbounds %class.TempObstacleHilightTool, ptr %3, i32 0, i32 1
  store ptr null, ptr %4, align 8
  %5 = getelementptr inbounds %class.TempObstacleHilightTool, ptr %3, i32 0, i32 3
  store i8 0, ptr %5, align 4
  %6 = getelementptr inbounds %class.TempObstacleHilightTool, ptr %3, i32 0, i32 5
  store i32 0, ptr %6, align 8
  %7 = getelementptr inbounds %class.TempObstacleHilightTool, ptr %3, i32 0, i32 2
  %8 = getelementptr inbounds [3 x float], ptr %7, i64 0, i64 2
  store float 0.000000e+00, ptr %8, align 8
  %9 = getelementptr inbounds %class.TempObstacleHilightTool, ptr %3, i32 0, i32 2
  %10 = getelementptr inbounds [3 x float], ptr %9, i64 0, i64 1
  store float 0.000000e+00, ptr %10, align 4
  %11 = getelementptr inbounds %class.TempObstacleHilightTool, ptr %3, i32 0, i32 2
  %12 = getelementptr inbounds [3 x float], ptr %11, i64 0, i64 0
  store float 0.000000e+00, ptr %12, align 8
  ret void
}

; Function Attrs: mustprogress uwtable
define dso_local void @_ZN20Sample_TempObstacles11handleToolsEv(ptr noundef nonnull align 8 dereferenceable(276) %0) unnamed_addr #5 align 2 personality ptr @__gxx_personality_v0 {
  %2 = alloca ptr, align 8
  %3 = alloca i32, align 4
  %4 = alloca ptr, align 8
  %5 = alloca i32, align 4
  store ptr %0, ptr %2, align 8
  %6 = load ptr, ptr %2, align 8
  %7 = getelementptr inbounds %class.Sample, ptr %6, i32 0, i32 23
  %8 = load ptr, ptr %7, align 8
  %9 = icmp ne ptr %8, null
  br i1 %9, label %11, label %10

10:                                               ; preds = %1
  br label %18

11:                                               ; preds = %1
  %12 = getelementptr inbounds %class.Sample, ptr %6, i32 0, i32 23
  %13 = load ptr, ptr %12, align 8
  %14 = load ptr, ptr %13, align 8
  %15 = getelementptr inbounds ptr, ptr %14, i64 2
  %16 = load ptr, ptr %15, align 8
  %17 = call noundef i32 %16(ptr noundef nonnull align 8 dereferenceable(8) %13)
  br label %18

18:                                               ; preds = %11, %10
  %19 = phi i32 [ 0, %10 ], [ %17, %11 ]
  store i32 %19, ptr %3, align 4
  %20 = load i32, ptr %3, align 4
  %21 = icmp eq i32 %20, 4
  %22 = call noundef zeroext i1 @_Z10imguiCheckPKcbb(ptr noundef @.str.27, i1 noundef zeroext %21, i1 noundef zeroext true)
  br i1 %22, label %23, label %30

23:                                               ; preds = %18
  %24 = call noalias noundef nonnull ptr @_Znwm(i64 noundef 33408) #13
  invoke void @_ZN17NavMeshTesterToolC1Ev(ptr noundef nonnull align 8 dereferenceable(33408) %24)
          to label %25 unwind label %26

25:                                               ; preds = %23
  call void @_ZN6Sample7setToolEP10SampleTool(ptr noundef nonnull align 8 dereferenceable(200) %6, ptr noundef %24)
  br label %30

26:                                               ; preds = %23
  %27 = landingpad { ptr, i32 }
          cleanup
  %28 = extractvalue { ptr, i32 } %27, 0
  store ptr %28, ptr %4, align 8
  %29 = extractvalue { ptr, i32 } %27, 1
  store i32 %29, ptr %5, align 4
  call void @_ZdlPv(ptr noundef %24) #11
  br label %96

30:                                               ; preds = %25, %18
  %31 = load i32, ptr %3, align 4
  %32 = icmp eq i32 %31, 2
  %33 = call noundef zeroext i1 @_Z10imguiCheckPKcbb(ptr noundef @.str.28, i1 noundef zeroext %32, i1 noundef zeroext true)
  br i1 %33, label %34, label %41

34:                                               ; preds = %30
  %35 = call noalias noundef nonnull ptr @_Znwm(i64 noundef 40) #13
  invoke void @_ZN23TempObstacleHilightToolC2Ev(ptr noundef nonnull align 8 dereferenceable(36) %35)
          to label %36 unwind label %37

36:                                               ; preds = %34
  call void @_ZN6Sample7setToolEP10SampleTool(ptr noundef nonnull align 8 dereferenceable(200) %6, ptr noundef %35)
  br label %41

37:                                               ; preds = %34
  %38 = landingpad { ptr, i32 }
          cleanup
  %39 = extractvalue { ptr, i32 } %38, 0
  store ptr %39, ptr %4, align 8
  %40 = extractvalue { ptr, i32 } %38, 1
  store i32 %40, ptr %5, align 4
  call void @_ZdlPv(ptr noundef %35) #11
  br label %96

41:                                               ; preds = %36, %30
  %42 = load i32, ptr %3, align 4
  %43 = icmp eq i32 %42, 3
  %44 = call noundef zeroext i1 @_Z10imguiCheckPKcbb(ptr noundef @.str.29, i1 noundef zeroext %43, i1 noundef zeroext true)
  br i1 %44, label %45, label %52

45:                                               ; preds = %41
  %46 = call noalias noundef nonnull ptr @_Znwm(i64 noundef 16) #13
  invoke void @_ZN22TempObstacleCreateToolC2Ev(ptr noundef nonnull align 8 dereferenceable(16) %46)
          to label %47 unwind label %48

47:                                               ; preds = %45
  call void @_ZN6Sample7setToolEP10SampleTool(ptr noundef nonnull align 8 dereferenceable(200) %6, ptr noundef %46)
  br label %52

48:                                               ; preds = %45
  %49 = landingpad { ptr, i32 }
          cleanup
  %50 = extractvalue { ptr, i32 } %49, 0
  store ptr %50, ptr %4, align 8
  %51 = extractvalue { ptr, i32 } %49, 1
  store i32 %51, ptr %5, align 4
  call void @_ZdlPv(ptr noundef %46) #11
  br label %96

52:                                               ; preds = %47, %41
  %53 = load i32, ptr %3, align 4
  %54 = icmp eq i32 %53, 6
  %55 = call noundef zeroext i1 @_Z10imguiCheckPKcbb(ptr noundef @.str.30, i1 noundef zeroext %54, i1 noundef zeroext true)
  br i1 %55, label %56, label %63

56:                                               ; preds = %52
  %57 = call noalias noundef nonnull ptr @_Znwm(i64 noundef 32) #13
  invoke void @_ZN21OffMeshConnectionToolC1Ev(ptr noundef nonnull align 8 dereferenceable(31) %57)
          to label %58 unwind label %59

58:                                               ; preds = %56
  call void @_ZN6Sample7setToolEP10SampleTool(ptr noundef nonnull align 8 dereferenceable(200) %6, ptr noundef %57)
  br label %63

59:                                               ; preds = %56
  %60 = landingpad { ptr, i32 }
          cleanup
  %61 = extractvalue { ptr, i32 } %60, 0
  store ptr %61, ptr %4, align 8
  %62 = extractvalue { ptr, i32 } %60, 1
  store i32 %62, ptr %5, align 4
  call void @_ZdlPv(ptr noundef %57) #11
  br label %96

63:                                               ; preds = %58, %52
  %64 = load i32, ptr %3, align 4
  %65 = icmp eq i32 %64, 7
  %66 = call noundef zeroext i1 @_Z10imguiCheckPKcbb(ptr noundef @.str.31, i1 noundef zeroext %65, i1 noundef zeroext true)
  br i1 %66, label %67, label %74

67:                                               ; preds = %63
  %68 = call noalias noundef nonnull ptr @_Znwm(i64 noundef 232) #13
  invoke void @_ZN16ConvexVolumeToolC1Ev(ptr noundef nonnull align 8 dereferenceable(232) %68)
          to label %69 unwind label %70

69:                                               ; preds = %67
  call void @_ZN6Sample7setToolEP10SampleTool(ptr noundef nonnull align 8 dereferenceable(200) %6, ptr noundef %68)
  br label %74

70:                                               ; preds = %67
  %71 = landingpad { ptr, i32 }
          cleanup
  %72 = extractvalue { ptr, i32 } %71, 0
  store ptr %72, ptr %4, align 8
  %73 = extractvalue { ptr, i32 } %71, 1
  store i32 %73, ptr %5, align 4
  call void @_ZdlPv(ptr noundef %68) #11
  br label %96

74:                                               ; preds = %69, %63
  %75 = load i32, ptr %3, align 4
  %76 = icmp eq i32 %75, 8
  %77 = call noundef zeroext i1 @_Z10imguiCheckPKcbb(ptr noundef @.str.32, i1 noundef zeroext %76, i1 noundef zeroext true)
  br i1 %77, label %78, label %85

78:                                               ; preds = %74
  %79 = call noalias noundef nonnull ptr @_Znwm(i64 noundef 32) #13
  invoke void @_ZN9CrowdToolC1Ev(ptr noundef nonnull align 8 dereferenceable(28) %79)
          to label %80 unwind label %81

80:                                               ; preds = %78
  call void @_ZN6Sample7setToolEP10SampleTool(ptr noundef nonnull align 8 dereferenceable(200) %6, ptr noundef %79)
  br label %85

81:                                               ; preds = %78
  %82 = landingpad { ptr, i32 }
          cleanup
  %83 = extractvalue { ptr, i32 } %82, 0
  store ptr %83, ptr %4, align 8
  %84 = extractvalue { ptr, i32 } %82, 1
  store i32 %84, ptr %5, align 4
  call void @_ZdlPv(ptr noundef %79) #11
  br label %96

85:                                               ; preds = %80, %74
  call void @_Z18imguiSeparatorLinev()
  call void @_Z11imguiIndentv()
  %86 = getelementptr inbounds %class.Sample, ptr %6, i32 0, i32 23
  %87 = load ptr, ptr %86, align 8
  %88 = icmp ne ptr %87, null
  br i1 %88, label %89, label %95

89:                                               ; preds = %85
  %90 = getelementptr inbounds %class.Sample, ptr %6, i32 0, i32 23
  %91 = load ptr, ptr %90, align 8
  %92 = load ptr, ptr %91, align 8
  %93 = getelementptr inbounds ptr, ptr %92, i64 5
  %94 = load ptr, ptr %93, align 8
  call void %94(ptr noundef nonnull align 8 dereferenceable(8) %91)
  br label %95

95:                                               ; preds = %89, %85
  call void @_Z13imguiUnindentv()
  ret void

96:                                               ; preds = %81, %70, %59, %48, %37, %26
  %97 = load ptr, ptr %4, align 8
  %98 = load i32, ptr %5, align 4
  %99 = insertvalue { ptr, i32 } poison, ptr %97, 0
  %100 = insertvalue { ptr, i32 } %99, i32 %98, 1
  resume { ptr, i32 } %100
}