; Function Attrs: mustprogress uwtable
define dso_local void @_ZN20Sample_TempObstacles11handleToolsEv(ptr noundef nonnull align 8 dereferenceable(276) %0) unnamed_addr #5 align 2 personality ptr @__gxx_personality_v0 {
  %2 = getelementptr inbounds i8, ptr %0, i64 104
  %3 = load ptr, ptr %2, align 8
  %.not = icmp eq ptr %3, null
  br i1 %.not, label %9, label %4

4:                                                ; preds = %1
  %5 = load ptr, ptr %3, align 8
  %6 = getelementptr inbounds i8, ptr %5, i64 16
  %7 = load ptr, ptr %6, align 8
  %8 = tail call noundef i32 %7(ptr noundef nonnull align 8 dereferenceable(8) %3)
  br label %9

9:                                                ; preds = %1, %4
  %10 = phi i32 [ %8, %4 ], [ 0, %1 ]
  %11 = icmp eq i32 %10, 4
  %12 = tail call noundef zeroext i1 @_Z10imguiCheckPKcbb(ptr noundef nonnull @.str.27, i1 noundef zeroext %11, i1 noundef zeroext true)
  br i1 %12, label %13, label %18

13:                                               ; preds = %9
  %14 = tail call noalias noundef nonnull dereferenceable(33408) ptr @_Znwm(i64 noundef 33408) #17
  invoke void @_ZN17NavMeshTesterToolC1Ev(ptr noundef nonnull align 8 dereferenceable(33408) %14)
          to label %15 unwind label %16

15:                                               ; preds = %13
  tail call void @_ZN6Sample7setToolEP10SampleTool(ptr noundef nonnull align 8 dereferenceable(200) %0, ptr noundef nonnull %14)
  br label %18

16:                                               ; preds = %13
  %17 = landingpad { ptr, i32 }
          cleanup
  br label %62

18:                                               ; preds = %15, %9
  %19 = icmp eq i32 %10, 2
  %20 = tail call noundef zeroext i1 @_Z10imguiCheckPKcbb(ptr noundef nonnull @.str.28, i1 noundef zeroext %19, i1 noundef zeroext true)
  br i1 %20, label %21, label %25

21:                                               ; preds = %18
  %22 = tail call noalias noundef nonnull dereferenceable(40) ptr @_Znwm(i64 noundef 40) #17
  store ptr getelementptr inbounds ({ [14 x ptr] }, ptr @_ZTV23TempObstacleHilightTool, i64 0, i32 0, i64 2), ptr %22, align 8
  %23 = getelementptr inbounds i8, ptr %22, i64 8
  %24 = getelementptr inbounds i8, ptr %22, i64 32
  store i32 0, ptr %24, align 8
  tail call void @llvm.memset.p0.i64(ptr noundef nonnull align 8 dereferenceable(21) %23, i8 0, i64 21, i1 false)
  tail call void @_ZN6Sample7setToolEP10SampleTool(ptr noundef nonnull align 8 dereferenceable(200) %0, ptr noundef nonnull %22)
  br label %25

25:                                               ; preds = %21, %18
  %26 = icmp eq i32 %10, 3
  %27 = tail call noundef zeroext i1 @_Z10imguiCheckPKcbb(ptr noundef nonnull @.str.29, i1 noundef zeroext %26, i1 noundef zeroext true)
  br i1 %27, label %28, label %31

28:                                               ; preds = %25
  %29 = tail call noalias noundef nonnull dereferenceable(16) ptr @_Znwm(i64 noundef 16) #17
  store ptr getelementptr inbounds ({ [14 x ptr] }, ptr @_ZTV22TempObstacleCreateTool, i64 0, i32 0, i64 2), ptr %29, align 8
  %30 = getelementptr inbounds i8, ptr %29, i64 8
  store ptr null, ptr %30, align 8
  tail call void @_ZN6Sample7setToolEP10SampleTool(ptr noundef nonnull align 8 dereferenceable(200) %0, ptr noundef nonnull %29)
  br label %31

31:                                               ; preds = %28, %25
  %32 = icmp eq i32 %10, 6
  %33 = tail call noundef zeroext i1 @_Z10imguiCheckPKcbb(ptr noundef nonnull @.str.30, i1 noundef zeroext %32, i1 noundef zeroext true)
  br i1 %33, label %34, label %39

34:                                               ; preds = %31
  %35 = tail call noalias noundef nonnull dereferenceable(32) ptr @_Znwm(i64 noundef 32) #17
  invoke void @_ZN21OffMeshConnectionToolC1Ev(ptr noundef nonnull align 8 dereferenceable(31) %35)
          to label %36 unwind label %37

36:                                               ; preds = %34
  tail call void @_ZN6Sample7setToolEP10SampleTool(ptr noundef nonnull align 8 dereferenceable(200) %0, ptr noundef nonnull %35)
  br label %39

37:                                               ; preds = %34
  %38 = landingpad { ptr, i32 }
          cleanup
  br label %62

39:                                               ; preds = %36, %31
  %40 = icmp eq i32 %10, 7
  %41 = tail call noundef zeroext i1 @_Z10imguiCheckPKcbb(ptr noundef nonnull @.str.31, i1 noundef zeroext %40, i1 noundef zeroext true)
  br i1 %41, label %42, label %47

42:                                               ; preds = %39
  %43 = tail call noalias noundef nonnull dereferenceable(232) ptr @_Znwm(i64 noundef 232) #17
  invoke void @_ZN16ConvexVolumeToolC1Ev(ptr noundef nonnull align 8 dereferenceable(232) %43)
          to label %44 unwind label %45

44:                                               ; preds = %42
  tail call void @_ZN6Sample7setToolEP10SampleTool(ptr noundef nonnull align 8 dereferenceable(200) %0, ptr noundef nonnull %43)
  br label %47

45:                                               ; preds = %42
  %46 = landingpad { ptr, i32 }
          cleanup
  br label %62

47:                                               ; preds = %44, %39
  %48 = icmp eq i32 %10, 8
  %49 = tail call noundef zeroext i1 @_Z10imguiCheckPKcbb(ptr noundef nonnull @.str.32, i1 noundef zeroext %48, i1 noundef zeroext true)
  br i1 %49, label %50, label %55

50:                                               ; preds = %47
  %51 = tail call noalias noundef nonnull dereferenceable(32) ptr @_Znwm(i64 noundef 32) #17
  invoke void @_ZN9CrowdToolC1Ev(ptr noundef nonnull align 8 dereferenceable(28) %51)
          to label %52 unwind label %53

52:                                               ; preds = %50
  tail call void @_ZN6Sample7setToolEP10SampleTool(ptr noundef nonnull align 8 dereferenceable(200) %0, ptr noundef nonnull %51)
  br label %55

53:                                               ; preds = %50
  %54 = landingpad { ptr, i32 }
          cleanup
  br label %62

55:                                               ; preds = %52, %47
  tail call void @_Z18imguiSeparatorLinev()
  tail call void @_Z11imguiIndentv()
  %56 = load ptr, ptr %2, align 8
  %.not12 = icmp eq ptr %56, null
  br i1 %.not12, label %61, label %57

57:                                               ; preds = %55
  %58 = load ptr, ptr %56, align 8
  %59 = getelementptr inbounds i8, ptr %58, i64 40
  %60 = load ptr, ptr %59, align 8
  tail call void %60(ptr noundef nonnull align 8 dereferenceable(8) %56)
  br label %61

61:                                               ; preds = %57, %55
  tail call void @_Z13imguiUnindentv()
  ret void

62:                                               ; preds = %53, %45, %37, %16
  %.sink = phi ptr [ %51, %53 ], [ %43, %45 ], [ %35, %37 ], [ %14, %16 ]
  %.pn = phi { ptr, i32 } [ %54, %53 ], [ %46, %45 ], [ %38, %37 ], [ %17, %16 ]
  tail call void @_ZdlPv(ptr noundef nonnull %.sink) #15
  resume { ptr, i32 } %.pn
}